(ios
_Environ
p1
(dp2
S'data'
p3
(dp4
S'HOME'
p5
S'/cluster/home/ifiddes'
p6
sS'KDE_IS_PRELINKED'
p7
S'1'
sS'LESSOPEN'
p8
S'|/usr/bin/lesspipe.sh %s'
p9
sS'SSH_CLIENT'
p10
S'128.114.61.130 61237 22'
p11
sS'CVS_RSH'
p12
S'ssh'
p13
sS'LOGNAME'
p14
S'ifiddes'
p15
sS'USER'
p16
S'ifiddes'
p17
sS'QTDIR'
p18
S'/usr/lib64/qt-3.3'
p19
sS'PATH'
p20
S':./submodules/sonLib/bin:./submodules/jobTree/bin:./submodules/bwa/:./submodules/lastz/src/:./submodules/last/src/:./submodules/last/scripts/:/cluster/home/ifiddes/bin:/cluster/bin:/cluster/bin/scripts:/cluster/bin/x86_64:/parasol/bin:/usr/lib64/qt-3.3/bin:/usr/local/bin:/bin:/usr/bin:/usr/local/sbin:/usr/sbin:/sbin:/var/cfengine/bin:/usr/lpp/mmfs/bin/:./submodules/fastqc/:./submodules/qualimap/'
p21
sS'MAKEFLAGS'
p22
S''
sS'LANG'
p23
S'en_US.UTF-8'
p24
sS'QTLIB'
p25
S'/usr/lib64/qt-3.3/lib'
p26
sS'TERM'
p27
S'xterm'
p28
sS'SHELL'
p29
S'/bin/bash'
p30
sS'MAKELEVEL'
p31
S'1'
sS'QTINC'
p32
S'/usr/lib64/qt-3.3/include'
p33
sS'G_BROKEN_FILENAMES'
p34
S'1'
sS'HISTSIZE'
p35
S'1000'
p36
sS'_'
S'/cluster/home/ifiddes/bin/python'
p37
sS'MFLAGS'
p38
S''
sS'PYTHONPATH'
p39
S':./:./submodules:'
p40
sS'TMPDIR'
p41
S'/scratch/tmp'
p42
sS'KDEDIRS'
p43
S'/usr'
p44
sS'SSH_CONNECTION'
p45
S'128.114.61.130 61237 132.249.245.88 22'
p46
sS'SSH_TTY'
p47
S'/dev/pts/76'
p48
sS'HOSTNAME'
p49
S'kolossus'
p50
sS'HISTCONTROL'
p51
S'ignoredups'
p52
sS'SHLVL'
p53
S'2'
sS'PWD'
p54
S'/cluster/home/ifiddes/miten/nanopore'
p55
sS'MAIL'
p56
S'/var/spool/mail/ifiddes'
p57
sS'LS_COLORS'
p58
S'rs=0:di=01;34:ln=01;36:mh=00:pi=40;33:so=01;35:do=01;35:bd=40;33;01:cd=40;33;01:or=40;31;01:mi=01;05;37;41:su=37;41:sg=30;43:ca=30;41:tw=30;42:ow=34;42:st=37;44:ex=01;32:*.tar=01;31:*.tgz=01;31:*.arj=01;31:*.taz=01;31:*.lzh=01;31:*.lzma=01;31:*.tlz=01;31:*.txz=01;31:*.zip=01;31:*.z=01;31:*.Z=01;31:*.dz=01;31:*.gz=01;31:*.lz=01;31:*.xz=01;31:*.bz2=01;31:*.tbz=01;31:*.tbz2=01;31:*.bz=01;31:*.tz=01;31:*.deb=01;31:*.rpm=01;31:*.jar=01;31:*.rar=01;31:*.ace=01;31:*.zoo=01;31:*.cpio=01;31:*.7z=01;31:*.rz=01;31:*.jpg=01;35:*.jpeg=01;35:*.gif=01;35:*.bmp=01;35:*.pbm=01;35:*.pgm=01;35:*.ppm=01;35:*.tga=01;35:*.xbm=01;35:*.xpm=01;35:*.tif=01;35:*.tiff=01;35:*.png=01;35:*.svg=01;35:*.svgz=01;35:*.mng=01;35:*.pcx=01;35:*.mov=01;35:*.mpg=01;35:*.mpeg=01;35:*.m2v=01;35:*.mkv=01;35:*.ogm=01;35:*.mp4=01;35:*.m4v=01;35:*.mp4v=01;35:*.vob=01;35:*.qt=01;35:*.nuv=01;35:*.wmv=01;35:*.asf=01;35:*.rm=01;35:*.rmvb=01;35:*.flc=01;35:*.avi=01;35:*.fli=01;35:*.flv=01;35:*.gl=01;35:*.dl=01;35:*.xcf=01;35:*.xwd=01;35:*.yuv=01;35:*.cgm=01;35:*.emf=01;35:*.axv=01;35:*.anx=01;35:*.ogv=01;35:*.ogx=01;35:*.aac=01;36:*.au=01;36:*.flac=01;36:*.mid=01;36:*.midi=01;36:*.mka=01;36:*.mp3=01;36:*.mpc=01;36:*.ogg=01;36:*.ra=01;36:*.wav=01;36:*.axa=01;36:*.oga=01;36:*.spx=01;36:*.xspf=01;36:'
p59
ssb.