(ios
_Environ
p1
(dp2
S'data'
p3
(dp4
S'HOME'
p5
S'/cluster/home/ifiddes'
p6
sS'KDE_IS_PRELINKED'
p7
S'1'
sS'LESSOPEN'
p8
S'|/usr/bin/lesspipe.sh %s'
p9
sS'SSH_CLIENT'
p10
S'24.6.88.8 27419 22'
p11
sS'CVS_RSH'
p12
S'ssh'
p13
sS'LOGNAME'
p14
S'ifiddes'
p15
sS'USER'
p16
S'ifiddes'
p17
sS'QTDIR'
p18
S'/usr/lib64/qt-3.3'
p19
sS'PATH'
p20
S':./submodules/kmer:./submodules/sonLib/bin:./submodules/jobTree/bin:./submodules/bwa/:./submodules/lastz/src/:./submodules/last/src/:/cluster/home/ifiddes/bin:/cluster/bin:/cluster/bin/scripts:/cluster/bin/x86_64:/parasol/bin:/usr/lib64/qt-3.3/bin:/usr/local/bin:/bin:/usr/bin:/usr/local/sbin:/usr/sbin:/sbin:/var/cfengine/bin:/usr/lpp/mmfs/bin/'
p21
sS'MAKEFLAGS'
p22
S''
sS'LANG'
p23
S'en_US.UTF-8'
p24
sS'QTLIB'
p25
S'/usr/lib64/qt-3.3/lib'
p26
sS'TERM'
p27
S'xterm-256color'
p28
sS'SHELL'
p29
S'/bin/bash'
p30
sS'MAKELEVEL'
p31
S'1'
sS'QTINC'
p32
S'/usr/lib64/qt-3.3/include'
p33
sS'G_BROKEN_FILENAMES'
p34
S'1'
sS'HISTSIZE'
p35
S'1000'
p36
sS'_'
S'/cluster/home/ifiddes/bin/python2.7'
p37
sS'MFLAGS'
p38
S''
sS'PYTHONPATH'
p39
S':./:./submodules'
p40
sS'TMPDIR'
p41
S'/scratch/tmp'
p42
sS'KDEDIRS'
p43
S'/usr'
p44
sS'SSH_CONNECTION'
p45
S'24.6.88.8 27419 132.249.245.88 22'
p46
sS'SSH_TTY'
p47
S'/dev/pts/92'
p48
sS'HOSTNAME'
p49
S'kolossus'
p50
sS'HISTCONTROL'
p51
S'ignoredups'
p52
sS'SHLVL'
p53
S'2'
sS'PWD'
p54
S'/cluster/home/ifiddes/try2/nanopore'
p55
sS'MAIL'
p56
S'/var/spool/mail/ifiddes'
p57
sS'LS_COLORS'
p58
S'rs=0:di=38;5;27:ln=38;5;51:mh=44;38;5;15:pi=40;38;5;11:so=38;5;13:do=38;5;5:bd=48;5;232;38;5;11:cd=48;5;232;38;5;3:or=48;5;232;38;5;9:mi=05;48;5;232;38;5;15:su=48;5;196;38;5;15:sg=48;5;11;38;5;16:ca=48;5;196;38;5;226:tw=48;5;10;38;5;16:ow=48;5;10;38;5;21:st=48;5;21;38;5;15:ex=38;5;34:*.tar=38;5;9:*.tgz=38;5;9:*.arj=38;5;9:*.taz=38;5;9:*.lzh=38;5;9:*.lzma=38;5;9:*.tlz=38;5;9:*.txz=38;5;9:*.zip=38;5;9:*.z=38;5;9:*.Z=38;5;9:*.dz=38;5;9:*.gz=38;5;9:*.lz=38;5;9:*.xz=38;5;9:*.bz2=38;5;9:*.tbz=38;5;9:*.tbz2=38;5;9:*.bz=38;5;9:*.tz=38;5;9:*.deb=38;5;9:*.rpm=38;5;9:*.jar=38;5;9:*.rar=38;5;9:*.ace=38;5;9:*.zoo=38;5;9:*.cpio=38;5;9:*.7z=38;5;9:*.rz=38;5;9:*.jpg=38;5;13:*.jpeg=38;5;13:*.gif=38;5;13:*.bmp=38;5;13:*.pbm=38;5;13:*.pgm=38;5;13:*.ppm=38;5;13:*.tga=38;5;13:*.xbm=38;5;13:*.xpm=38;5;13:*.tif=38;5;13:*.tiff=38;5;13:*.png=38;5;13:*.svg=38;5;13:*.svgz=38;5;13:*.mng=38;5;13:*.pcx=38;5;13:*.mov=38;5;13:*.mpg=38;5;13:*.mpeg=38;5;13:*.m2v=38;5;13:*.mkv=38;5;13:*.ogm=38;5;13:*.mp4=38;5;13:*.m4v=38;5;13:*.mp4v=38;5;13:*.vob=38;5;13:*.qt=38;5;13:*.nuv=38;5;13:*.wmv=38;5;13:*.asf=38;5;13:*.rm=38;5;13:*.rmvb=38;5;13:*.flc=38;5;13:*.avi=38;5;13:*.fli=38;5;13:*.flv=38;5;13:*.gl=38;5;13:*.dl=38;5;13:*.xcf=38;5;13:*.xwd=38;5;13:*.yuv=38;5;13:*.cgm=38;5;13:*.emf=38;5;13:*.axv=38;5;13:*.anx=38;5;13:*.ogv=38;5;13:*.ogx=38;5;13:*.aac=38;5;45:*.au=38;5;45:*.flac=38;5;45:*.mid=38;5;45:*.midi=38;5;45:*.mka=38;5;45:*.mp3=38;5;45:*.mpc=38;5;45:*.ogg=38;5;45:*.ra=38;5;45:*.wav=38;5;45:*.axa=38;5;45:*.oga=38;5;45:*.spx=38;5;45:*.xspf=38;5;45:'
p59
ssb.