(ios
_Environ
p1
(dp2
S'data'
p3
(dp4
S'JAVA_STARTED_ON_FIRST_THREAD_194'
p5
S'1'
sS'LAGAN_DIR'
p6
S'/Users/benedictpaten/bin/lagan20/'
p7
sS'VERSIONER_PYTHON_PREFER_32_BIT'
p8
S'no'
p9
sS'LOGNAME'
p10
S'benedictpaten'
p11
sS'USER'
p12
S'benedictpaten'
p13
sS'PATH'
p14
S':./submodules/sonLib/bin:./submodules/cactus/bin:./submodules/jobTree/bin:./submodules/bwa/:./submodules/lastz/src/:./submodules/last/src/:./submodules/last/scripts/:/opt/local/bin:/opt/local/sbin:/opt/local/bin:/opt/local/sbin:/opt/local/bin:/opt/local/sbin:/Library/Frameworks/Python.framework/Versions/2.7/bin:/usr/bin:/bin:/usr/sbin:/sbin:/usr/local/bin:/Users/benedictpaten/bin/:/usr/local/graphviz-2.12/bin:/Users/benedictpaten/bin/semphy-2.0b2-bin-mac-ppc/:/Users/benedictpaten/bin/lagan20/:/Users/benedictpaten/bin/lagan20/utils/:/Users/benedictpaten/bin/probcons/:/Users/benedictpaten/bin/exonerate-1.0.0-osx/bin:/Users/benedictpaten/bin/lastz-distrib/bin:/Users/benedictpaten/bin/lastz-distrib/tools:/usr/local/mysql/bin:/Users/benedictpaten/bin/MUMmer3.22:/Users/benedictpaten/bin/mavid/mavid:/Users/benedictpaten/bin/multizTBA:/Users/benedictpaten/sync/eclipse/pecan-amap/src:/Users/benedictpaten/sync/eclipse/git/cactus/bin/:/Users/benedictpaten/sync/eclipse/git/cactus2hal/bin/:/Users/benedictpaten/sync/eclipse/git/hal/bin/:/Users/benedictpaten/sync/eclipse/git/cactusTools/bin/:/Users/benedictpaten/sync/eclipse/git/jobTree/bin/:/Users/benedictpaten/sync/eclipse/git/mafTools/bin/:/Users/benedictpaten/sync/eclipse/git/ortheus/bin/:/Users/benedictpaten/sync/eclipse/git/sonLib/bin/:./submodules/fastqc/:./submodules/qualimap/'
p15
sS'HOME'
p16
S'/Users/benedictpaten'
p17
sS'MAKEFLAGS'
p18
S''
sS'TERM'
p19
S'ansi'
p20
sS'SHELL'
p21
S'/bin/bash'
p22
sS'VERSIONER_PYTHON_VERSION'
p23
S'2.7'
p24
sS'SHLVL'
p25
S'2'
sS'SECURITYSESSIONID'
p26
S'186a5'
p27
sS'_'
S'/usr/bin/python'
p28
sS'JAVA_HOME'
p29
S'/usr'
p30
sS'MFLAGS'
p31
S''
sS'PYTHONPATH'
p32
S':./:./submodules::/Users/benedictpaten/sync/eclipse/:/Users/benedictpaten/sync/eclipse/git/'
p33
sS'SSH_AUTH_SOCK'
p34
S'/tmp/launch-8GxjCy/Listeners'
p35
sS'CLASSPATH'
p36
S'/Users/benedictpaten/sync/eclipse/git/pecan/'
p37
sS'Apple_PubSub_Socket_Render'
p38
S'/tmp/launch-Z2gnf9/Render'
p39
sS'TMPDIR'
p40
S'/var/folders/tq/ssptxjwn2mg8ln95gh6mzq_w0000gn/T/'
p41
sS'APP_ICON_194'
p42
S'../Resources/Eclipse.icns'
p43
sS'__CF_USER_TEXT_ENCODING'
p44
S'0x1F5:0:0'
p45
sS'MAKELEVEL'
p46
S'1'
sS'PWD'
p47
S'/Users/benedictpaten/git/nanopore'
p48
sS'SON_TRACE_DATASETS'
p49
S'/Users/benedictpaten/Google-Drive/dataSets'
p50
sS'__CHECKFIX1436934'
p51
S'1'
sS'COMMAND_MODE'
p52
S'unix2003'
p53
ssb.