(ios
_Environ
p1
(dp2
S'data'
p3
(dp4
S'TERM_PROGRAM_VERSION'
p5
S'326'
p6
sS'LOGNAME'
p7
S'miten'
p8
sS'USER'
p9
S'miten'
p10
sS'PATH'
p11
S':./submodules/sonLib/bin:./submodules/jobTree/bin:./submodules/bwa/:./submodules/lastz/src/:./submodules/last/src/:./submodules/last/scripts/:/Users/miten/anaconda/bin:/usr/bin:/bin:/usr/sbin:/sbin:/usr/local/bin:/opt/X11/bin'
p12
sS'HOME'
p13
S'/Users/miten'
p14
sS'DISPLAY'
p15
S'/tmp/launch-X0hFIV/org.macosforge.xquartz:0'
p16
sS'MAKEFLAGS'
p17
S''
sS'TERM_PROGRAM'
p18
S'Apple_Terminal'
p19
sS'LANG'
p20
S'en_US.UTF-8'
p21
sS'TERM'
p22
S'xterm-256color'
p23
sS'Apple_PubSub_Socket_Render'
p24
S'/tmp/launch-c5SUl5/Render'
p25
sS'SHLVL'
p26
S'2'
sS'_'
S'/Users/miten/anaconda/bin/python'
p27
sS'MFLAGS'
p28
S''
sS'TERM_SESSION_ID'
p29
S'27D5F533-324C-4F47-ABD6-55BB4C065808'
p30
sS'COM_GOOGLE_CHROME_FRAMEWORK_SERVICE_PROCESS/USERS/MITEN/LIBRARY/APPLICATION_SUPPORT/GOOGLE/CHROME_SOCKET'
p31
S'/tmp/launch-kzDZlN/ServiceProcessSocket'
p32
sS'PYTHONPATH'
p33
S':./:./submodules:'
p34
sS'SSH_AUTH_SOCK'
p35
S'/tmp/launch-VC4l4u/Listeners'
p36
sS'SHELL'
p37
S'/bin/bash'
p38
sS'TMPDIR'
p39
S'/var/folders/pg/129bhphn53xg5wbg92t55xmw0000gn/T/'
p40
sS'__CF_USER_TEXT_ENCODING'
p41
S'0x1F5:0:0'
p42
sS'MAKELEVEL'
p43
S'1'
sS'PWD'
p44
S'/Users/miten/Downloads/nanopore'
p45
sS'__CHECKFIX1436934'
p46
S'1'
ssb.